(lp1
S'Chicago\tSun 01:52\r\nColumbus Sun 02:52\r\nRiyadh\tSun 10:52\r\nCopenhagen\tSun 08:52\r\nKuwait City\tSun 10:52\r\nRome\tSun 08:52\r\nDallas\tSun 01:52\r\nSalt Lake City\tSun 01:52\r\nSan Francisco Sun 00:52\r\nAmsterdam Sun 08:52\r\nDenver Sun 01:52\r\nSan Salvador Sun 01:52\r\nDetroit\tSun 02:52\r\nLas Vegas Sun 00:52\r\nSantiago\tSun 04:52\r\nAnchorage Sat 23:52\r\nAnkara Sun 10:52\r\nLisbon\tSun 07:52\r\nS\xc3\x83\xc2\xa3o Paulo\tSun 05:52\r\nDubai\tSun 11:52\r\nLondon\tSun 07:52\r\nSeattle\tSun 00:52\r\nDublin\tSun 07:52\r\nLos Angeles Sun 00:52\r\nAthens\tSun 09:52\r\nEdmonton Sun 01:52\r\nMadrid\tSun 08:52\r\nShanghai Sun 15:52\r\nAtlanta\tSun 02:52\r\nFrankfurt\tSun 08:52\r\nSingapore Sun 15:52\r\nAuckland Sun 20:52\r\nHalifax\tSun 03:52\r\nMelbourne Sun 18:52\r\nStockholm\tSun 08:52\r\nBarcelona\tSun 08:52\r\nMiami\tSun 02:52\r\nMinneapolis\tSun 01:52\r\nSydney Sun 18:52\r\nBeirut\tSun 09:52\r\nHelsinki\tSun 09:52\r\nMontreal\tSun 02:52\r\nBerlin\tSun 08:52\r\nHouston\tSun 01:52\r\nMoscow\tSun 10:52\r\nIndianapolis\tSun 02:52\t\r\nBoston\tSun 02:52\r\nTokyo\tSun 16:52\r\nBrasilia Sun 05:52\r\nIstanbul Sun 10:52\r\nToronto\tSun 02:52\r\nVancouver\tSun 00:52\r\nBrussels\tSun 08:52\r\nJerusalem\tSun 09:52\r\nNew Orleans\tSun 01:52\r\nVienna\tSun 08:52\r\nBucharest\tSun 09:52\r\nJohannesburg\tSun 09:52\r\nNew York\tSun 02:52\r\nWarsaw\tSun 08:52\r\nBudapest\tSun 08:52\r\nOslo\tSun 08:52\r\nWashington DC\tSun 02:52\r\nOttawa\tSun 02:52\r\nWinnipeg\tSun 01:52\r\nCairo\tSun 09:52\r\nParis\tSun 08:52\r\nCalgary\tSun 01:52\r\nKathmandu\tSun 13:37\r\nPhiladelphia\tSun 02:52\r\nZurich\tSun 08:52\r\nCape Town\tSun 09:52\r\nPhoenix\tSun 00:52\t\t\r\nPrague\tSun 08:52\t\t\r\nCasablanca\tSun 07:52\r\nReykjavik\tSun 07:52\r\n'
p2
a.